(dp0
S'rfr'
p1
(dp2
S'Route4_Perf1_rfr'
p3
(dp4
S'path'
p5
S'/home/ubuntu/Regression_4th_Iteration/Models/Route1_Perf4_rfr'
p6
sS'mae'
p7
F1161.2316630520804
sS'r2'
p8
F0.8310987630207882
sS'rmse'
p9
F1804.7913674205688
ssS'Route2_Perf1_rfr'
p10
(dp11
g5
S'/home/ubuntu/Regression_4th_Iteration/Models/Route1_Perf2_rfr'
p12
sg7
F972.5772836530238
sg8
F0.6984363264120073
sg9
F1384.480940403791
ssS'Route3_Perf1_rfr'
p13
(dp14
g5
S'/home/ubuntu/Regression_4th_Iteration/Models/Route1_Perf3_rfr'
p15
sg7
F695.2913147905995
sg8
F0.7558100786368511
sg9
F1036.6794289267743
ssS'Route0_Perf2_rfr'
p16
(dp17
g5
S'/home/ubuntu/Regression_4th_Iteration/Models/Route2_Perf0_rfr'
p18
sg7
F475.70067913318496
sg8
F0.8058591076864429
sg9
F685.9648916778915
ssS'param'
p19
S'ParamGridBuilder()                     .addGrid(temp_lr.maxDepth, [3, 5])                     .addGrid(temp_lr.numTrees, [10,20,40])                     .build()'
p20
sS'Route3_Perf2_rfr'
p21
(dp22
g5
S'/home/ubuntu/Regression_4th_Iteration/Models/Route2_Perf3_rfr'
p23
sg7
F937.5773328256287
sg8
F0.6476331553113222
sg9
F1355.7993489201465
ssS'Route1_Perf1_rfr'
p24
(dp25
g5
S'/home/ubuntu/Regression_4th_Iteration/Models/Route1_Perf1_rfr'
p26
sg7
F3000.7702196259706
sg8
F0.7364468723246169
sg9
F3831.543271511385
ssS'Route2_Perf2_rfr'
p27
(dp28
g5
S'/home/ubuntu/Regression_4th_Iteration/Models/Route2_Perf2_rfr'
p29
sg7
F1254.8281599037928
sg8
F0.617612635839889
sg9
F1757.6479660462644
ssS'Route1_Perf2_rfr'
p30
(dp31
g5
S'/home/ubuntu/Regression_4th_Iteration/Models/Route2_Perf1_rfr'
p32
sg7
F1630.1725424372933
sg8
F0.7530550437422576
sg9
F2105.5047555137976
ssS'Route1_Perf0_rfr'
p33
(dp34
g5
S'/home/ubuntu/Regression_4th_Iteration/Models/Route0_Perf1_rfr'
p35
sg7
F2262.637997223345
sg8
F0.7439789631376118
sg9
F3112.5471369051997
ssS'Route2_Perf0_rfr'
p36
(dp37
g5
S'/home/ubuntu/Regression_4th_Iteration/Models/Route0_Perf2_rfr'
p38
sg7
F787.3480768755393
sg8
F0.7627267471668904
sg9
F1220.8076233203215
ssS'Route0_Perf0_rfr'
p39
(dp40
g5
S'/home/ubuntu/Regression_4th_Iteration/Models/Route0_Perf0_rfr'
p41
sg7
F578.6454373540787
sg8
F0.6205246723570512
sg9
F960.5602073699389
ssS'Route3_Perf0_rfr'
p42
(dp43
g5
S'/home/ubuntu/Regression_4th_Iteration/Models/Route0_Perf3_rfr'
p44
sg7
F898.9969832901173
sg8
F0.7203525779565529
sg9
F1272.4436004200813
ssS'Route4_Perf0_rfr'
p45
(dp46
g5
S'/home/ubuntu/Regression_4th_Iteration/Models/Route0_Perf4_rfr'
p47
sg7
F1580.1316332519832
sg8
F0.7086779344805061
sg9
F2247.4695545743957
ssS'Route0_Perf1_rfr'
p48
(dp49
g5
S'/home/ubuntu/Regression_4th_Iteration/Models/Route1_Perf0_rfr'
p50
sg7
F647.1821174613553
sg8
F0.6334550447837877
sg9
F972.8503778576463
ssS'Route4_Perf2_rfr'
p51
(dp52
g5
S'/home/ubuntu/Regression_4th_Iteration/Models/Route2_Perf4_rfr'
p53
sg7
F1860.6662140330336
sg8
F0.6458977865326316
sg9
F2615.808227575415
sssS'dt'
p54
(dp55
S'Route0_Perf2_dt'
p56
(dp57
g5
S'/home/ubuntu/Regression_4th_Iteration/Models/Route2_Perf0_dt'
p58
sg7
F362.2477960766258
sg8
F0.8631485301130457
sg9
F575.927891213726
ssS'Route0_Perf0_dt'
p59
(dp60
g5
S'/home/ubuntu/Regression_4th_Iteration/Models/Route0_Perf0_dt'
p61
sg7
F526.2860448281214
sg8
F0.653202242038257
sg9
F918.2711915465923
ssS'Route2_Perf0_dt'
p62
(dp63
g5
S'/home/ubuntu/Regression_4th_Iteration/Models/Route0_Perf2_dt'
p64
sg7
F719.3068065932431
sg8
F0.7962833460574841
sg9
F1131.191433662649
ssS'Route1_Perf0_dt'
p65
(dp66
g5
S'/home/ubuntu/Regression_4th_Iteration/Models/Route0_Perf1_dt'
p67
sg7
F2281.4506561327416
sg8
F0.7331699692337391
sg9
F3177.572470732732
ssS'Route2_Perf2_dt'
p68
(dp69
g5
S'/home/ubuntu/Regression_4th_Iteration/Models/Route2_Perf2_dt'
p70
sg7
F1183.4897886581748
sg8
F0.6373233280643269
sg9
F1711.7484388861708
ssS'Route3_Perf0_dt'
p71
(dp72
g5
S'/home/ubuntu/Regression_4th_Iteration/Models/Route0_Perf3_dt'
p73
sg7
F811.0379994913451
sg8
F0.7581729986982573
sg9
F1183.2745590335196
ssS'Route4_Perf1_dt'
p74
(dp75
g5
S'/home/ubuntu/Regression_4th_Iteration/Models/Route1_Perf4_dt'
p76
sg7
F1075.7932027775105
sg8
F0.8469142749384042
sg9
F1718.216707354531
ssS'Route3_Perf2_dt'
p77
(dp78
g5
S'/home/ubuntu/Regression_4th_Iteration/Models/Route2_Perf3_dt'
p79
sg7
F837.8556266926679
sg8
F0.6906041491793037
sg9
F1270.44288364169
ssS'Route4_Perf0_dt'
p80
(dp81
g5
S'/home/ubuntu/Regression_4th_Iteration/Models/Route0_Perf4_dt'
p82
sg7
F1568.8396135829946
sg8
F0.7108234719904776
sg9
F2239.178144470197
ssg19
S'ParamGridBuilder()                     .addGrid(temp_lr.maxDepth, [3, 5])                     .addGrid(temp_lr.minInfoGain, [0, 0.1, 1])                     .build()'
p83
sS'Route2_Perf1_dt'
p84
(dp85
g5
S'/home/ubuntu/Regression_4th_Iteration/Models/Route1_Perf2_dt'
p86
sg7
F894.2484346512161
sg8
F0.7308088156934902
sg9
F1308.0606628149128
ssS'Route3_Perf1_dt'
p87
(dp88
g5
S'/home/ubuntu/Regression_4th_Iteration/Models/Route1_Perf3_dt'
p89
sg7
F600.0809811104112
sg8
F0.8069679713889332
sg9
F921.7121251845856
ssS'Route0_Perf1_dt'
p90
(dp91
g5
S'/home/ubuntu/Regression_4th_Iteration/Models/Route1_Perf0_dt'
p92
sg7
F598.5095908286135
sg8
F0.6601933338824966
sg9
F936.6953747407589
ssS'Route1_Perf1_dt'
p93
(dp94
g5
S'/home/ubuntu/Regression_4th_Iteration/Models/Route1_Perf1_dt'
p95
sg7
F4010.716879502928
sg8
F0.5268307056311299
sg9
F5133.906138575599
ssS'Route1_Perf2_dt'
p96
(dp97
g5
S'/home/ubuntu/Regression_4th_Iteration/Models/Route2_Perf1_dt'
p98
sg7
F1531.5838930965754
sg8
F0.7537457435847843
sg9
F2102.558167452976
ssS'Route4_Perf2_dt'
p99
(dp100
g5
S'/home/ubuntu/Regression_4th_Iteration/Models/Route2_Perf4_dt'
p101
sg7
F1719.6193601061532
sg8
F0.6877064690435757
sg9
F2456.5356703238763
sssS'lr'
p102
(dp103
S'Route3_Perf2_lr'
p104
(dp105
g5
S'/home/ubuntu/Regression_4th_Iteration/Models/Route2_Perf3_lr'
p106
sg7
F869.7135383728396
sg8
F0.6407327750644034
sg9
F1369.01025685899
ssS'Route4_Perf1_lr'
p107
(dp108
g5
S'/home/ubuntu/Regression_4th_Iteration/Models/Route1_Perf4_lr'
p109
sg7
F1436.371661626858
sg8
F0.6839018648855393
sg9
F2469.002653756465
ssS'Route2_Perf1_lr'
p110
(dp111
g5
S'/home/ubuntu/Regression_4th_Iteration/Models/Route1_Perf2_lr'
p112
sg7
F967.0923306880577
sg8
F0.662114758478558
sg9
F1465.4873706672727
ssS'Route1_Perf1_lr'
p113
(dp114
g5
S'/home/ubuntu/Regression_4th_Iteration/Models/Route1_Perf1_lr'
p115
sg7
F4235.861468563838
sg8
F0.4612814362012039
sg9
F5477.982215794996
ssg19
S'ParamGridBuilder()                     .addGrid(temp_lr.maxIter, [5, 10, 100])                     .addGrid(temp_lr.regParam, [0, 0.1, 0.01])                     .build()'
p116
sS'Route3_Perf1_lr'
p117
(dp118
g5
S'/home/ubuntu/Regression_4th_Iteration/Models/Route1_Perf3_lr'
p119
sg7
F552.8797197012249
sg8
F0.7775928803659677
sg9
F989.361385874757
ssS'Route0_Perf1_lr'
p120
(dp121
g5
S'/home/ubuntu/Regression_4th_Iteration/Models/Route1_Perf0_lr'
p122
sg7
F710.5044424546605
sg8
F0.5644143353696387
sg9
F1060.5208660587555
ssS'Route4_Perf2_lr'
p123
(dp124
g5
S'/home/ubuntu/Regression_4th_Iteration/Models/Route2_Perf4_lr'
p125
sg7
F2481.808622430824
sg8
F0.3404319539550189
sg9
F3570.02604365948
ssS'Route4_Perf0_lr'
p126
(dp127
g5
S'/home/ubuntu/Regression_4th_Iteration/Models/Route0_Perf4_lr'
p128
sg7
F1985.6623446697627
sg8
F0.5508679412544362
sg9
F2790.5779282928174
ssS'Route3_Perf0_lr'
p129
(dp130
g5
S'/home/ubuntu/Regression_4th_Iteration/Models/Route0_Perf3_lr'
p131
sg7
F851.5099410554541
sg8
F0.686161053822042
sg9
F1347.9896268759753
ssS'Route1_Perf0_lr'
p132
(dp133
g5
S'/home/ubuntu/Regression_4th_Iteration/Models/Route0_Perf1_lr'
p134
sg7
F3157.465950687154
sg8
F0.4911504620262602
sg9
F4388.062486903189
ssS'Route2_Perf2_lr'
p135
(dp136
g5
S'/home/ubuntu/Regression_4th_Iteration/Models/Route2_Perf2_lr'
p137
sg7
F1242.627139236909
sg8
F0.5634172624441669
sg9
F1878.0770662740504
ssS'Route0_Perf2_lr'
p138
(dp139
g5
S'/home/ubuntu/Regression_4th_Iteration/Models/Route2_Perf0_lr'
p140
sg7
F485.4513627068919
sg8
F0.7335892923099856
sg9
F803.5616763079986
ssS'Route2_Perf0_lr'
p141
(dp142
g5
S'/home/ubuntu/Regression_4th_Iteration/Models/Route0_Perf2_lr'
p143
sg7
F689.3903591868573
sg8
F0.7790943393321826
sg9
F1177.948389833822
ssS'Route1_Perf2_lr'
p144
(dp145
g5
S'/home/ubuntu/Regression_4th_Iteration/Models/Route2_Perf1_lr'
p146
sg7
F2384.9625469652724
sg8
F0.45244657877306416
sg9
F3135.2299193115523
ssS'Route0_Perf0_lr'
p147
(dp148
g5
S'/home/ubuntu/Regression_4th_Iteration/Models/Route0_Perf0_lr'
p149
sg7
F551.5783950798719
sg8
F0.6357584229632541
sg9
F941.0822407830996
sssS'gbt'
p150
(dp151
S'Route3_Perf2_gbt'
p152
(dp153
g5
S'/home/ubuntu/Regression_4th_Iteration/Models/Route2_Perf3_gbt'
p154
sg7
F642.9137502636431
sg8
F0.8069143714982197
sg9
F1003.6282501086374
ssS'Route0_Perf2_gbt'
p155
(dp156
g5
S'/home/ubuntu/Regression_4th_Iteration/Models/Route2_Perf0_gbt'
p157
sg7
F264.02211490691707
sg8
F0.9175953477808106
sg9
F446.909146820659
ssS'Route2_Perf2_gbt'
p158
(dp159
g5
S'/home/ubuntu/Regression_4th_Iteration/Models/Route2_Perf2_gbt'
p160
sg7
F732.4158813955294
sg8
F0.8458484020095388
sg9
F1115.9741763037619
ssS'Route1_Perf0_gbt'
p161
(dp162
g5
S'/home/ubuntu/Regression_4th_Iteration/Models/Route0_Perf1_gbt'
p163
sg7
F1747.7091327841747
sg8
F0.84810154285431
sg9
F2397.4788933891764
ssS'Route4_Perf2_gbt'
p164
(dp165
g5
S'/home/ubuntu/Regression_4th_Iteration/Models/Route2_Perf4_gbt'
p166
sg7
F1440.3792605010515
sg8
F0.7796012685253746
sg9
F2063.6979177416747
ssS'Route2_Perf0_gbt'
p167
(dp168
g5
S'/home/ubuntu/Regression_4th_Iteration/Models/Route0_Perf2_gbt'
p169
sg7
F518.2636694873084
sg8
F0.8901431506709233
sg9
F830.6850801001895
ssg19
S'ParamGridBuilder()                     .addGrid(temp_lr.maxDepth, [3, 5])                     .addGrid(temp_lr.maxIter, [10,20,40])                     .build()'
p170
sS'Route3_Perf1_gbt'
p171
(dp172
g5
S'/home/ubuntu/Regression_4th_Iteration/Models/Route1_Perf3_gbt'
p173
sg7
F480.8410324917434
sg8
F0.8633895763018693
sg9
F775.394172020089
ssS'Route1_Perf2_gbt'
p174
(dp175
g5
S'/home/ubuntu/Regression_4th_Iteration/Models/Route2_Perf1_gbt'
p176
sg7
F1176.3070873914219
sg8
F0.8690655549472512
sg9
F1533.144546145021
ssS'Route2_Perf1_gbt'
p177
(dp178
g5
S'/home/ubuntu/Regression_4th_Iteration/Models/Route1_Perf2_gbt'
p179
sg7
F672.0813200136876
sg8
F0.8432238523208314
sg9
F998.2457345163278
ssS'Route1_Perf1_gbt'
p180
(dp181
g5
S'/home/ubuntu/Regression_4th_Iteration/Models/Route1_Perf1_gbt'
p182
sg7
F1580.6718649584243
sg8
F0.911062257177
sg9
F2225.782374243733
ssS'Route0_Perf1_gbt'
p183
(dp184
g5
S'/home/ubuntu/Regression_4th_Iteration/Models/Route1_Perf0_gbt'
p185
sg7
F495.6377663233053
sg8
F0.746177584798309
sg9
F809.5569671096243
ssS'Route4_Perf0_gbt'
p186
(dp187
g5
S'/home/ubuntu/Regression_4th_Iteration/Models/Route0_Perf4_gbt'
p188
sg7
F867.9597039130414
sg8
F0.9129054329261392
sg9
F1228.8607113880225
ssS'Route3_Perf0_gbt'
p189
(dp190
g5
S'/home/ubuntu/Regression_4th_Iteration/Models/Route0_Perf3_gbt'
p191
sg7
F645.0528093601931
sg8
F0.8365089504059079
sg9
F972.9267019777849
ssS'Route0_Perf0_gbt'
p192
(dp193
g5
S'/home/ubuntu/Regression_4th_Iteration/Models/Route0_Perf0_gbt'
p194
sg7
F425.9028372970174
sg8
F0.7470213510275467
sg9
F784.2865252950589
ssS'Route4_Perf1_gbt'
p195
(dp196
g5
S'/home/ubuntu/Regression_4th_Iteration/Models/Route1_Perf4_gbt'
p197
sg7
F595.4570238857366
sg8
F0.9592502381251554
sg9
F886.4885437878557
sss.